target datalayout = "e-m:e-p270:32:32-p271:32:32-p272:64:64-i64:64-i128:128-f80:128-n8:16:32:64-S128"
target triple = "x86_64-pc-linux-gnu"

%struct.AVBPrint = type { ptr, i32, i32, i32, [1 x i8], [1000 x i8] }

@.str.4 = private unnamed_addr constant [3 x i8] c"%s\00", align 1

; Function Attrs: inlinehint nounwind uwtable
define internal i32 @av_bprint_is_complete(ptr noundef %0) #7 {
  %2 = alloca ptr, align 8
  store ptr %0, ptr %2, align 8, !tbaa !46
  %3 = load ptr, ptr %2, align 8, !tbaa !46
  %4 = getelementptr inbounds nuw %struct.AVBPrint, ptr %3, i32 0, i32 1
  %5 = load i32, ptr %4, align 8, !tbaa !50
  %6 = load ptr, ptr %2, align 8, !tbaa !46
  %7 = getelementptr inbounds nuw %struct.AVBPrint, ptr %6, i32 0, i32 2
  %8 = load i32, ptr %7, align 4, !tbaa !51
  %9 = icmp ult i32 %5, %8
  %10 = zext i1 %9 to i32
  ret i32 %10
}

; Function Attrs: inlinehint nounwind uwtable
define internal i32 @is_eol(i8 noundef signext %0) #7 {
  %2 = alloca i8, align 1
  store i8 %0, ptr %2, align 1, !tbaa !22
  %3 = load i8, ptr %2, align 1, !tbaa !22
  %4 = sext i8 %3 to i32
  %5 = icmp eq i32 %4, 13
  br i1 %5, label %10, label %6

6:                                                ; preds = %1
  %7 = load i8, ptr %2, align 1, !tbaa !22
  %8 = sext i8 %7 to i32
  %9 = icmp eq i32 %8, 10
  br label %10

10:                                               ; preds = %6, %1
  %11 = phi i1 [ true, %1 ], [ %9, %6 ]
  %12 = zext i1 %11 to i32
  ret i32 %12
}

; Function Attrs: nounwind uwtable
define i32 @ff_subtitles_read_text_chunk(ptr noundef %0, ptr noundef %1) #0 {
  %3 = alloca ptr, align 8
  %4 = alloca ptr, align 8
  %5 = alloca [5 x i8], align 1
  %6 = alloca i8, align 1
  %7 = alloca i32, align 4
  %8 = alloca i32, align 4
  %9 = alloca i32, align 4
  %10 = alloca i8, align 1
  %11 = alloca i32, align 4
  store ptr %0, ptr %3, align 8, !tbaa !4
  store ptr %1, ptr %4, align 8, !tbaa !46
  call void @llvm.lifetime.start.p0(i64 5, ptr %5) #9
  call void @llvm.lifetime.start.p0(i64 1, ptr %6) #9
  store i8 0, ptr %6, align 1, !tbaa !22
  call void @llvm.lifetime.start.p0(i64 4, ptr %7) #9
  store i32 0, ptr %7, align 4, !tbaa !21
  call void @llvm.lifetime.start.p0(i64 4, ptr %8) #9
  store i32 0, ptr %8, align 4, !tbaa !21
  call void @llvm.lifetime.start.p0(i64 4, ptr %9) #9
  store i32 0, ptr %9, align 4, !tbaa !21
  %12 = load ptr, ptr %4, align 8, !tbaa !46
  call void @av_bprint_clear(ptr noundef %12)
  br label %13

13:                                               ; preds = %80, %78, %2
  call void @llvm.lifetime.start.p0(i64 1, ptr %10) #9
  %14 = load ptr, ptr %3, align 8, !tbaa !4
  %15 = call i32 @ff_text_r8(ptr noundef %14)
  %16 = trunc i32 %15 to i8
  store i8 %16, ptr %10, align 1, !tbaa !22
  %17 = load i8, ptr %10, align 1, !tbaa !22
  %18 = icmp ne i8 %17, 0
  br i1 %18, label %20, label %19

19:                                               ; preds = %13
  store i32 2, ptr %11, align 4
  br label %78

20:                                               ; preds = %13
  %21 = load i32, ptr %7, align 4, !tbaa !21
  %22 = icmp eq i32 %21, 0
  br i1 %22, label %23, label %28

23:                                               ; preds = %20
  %24 = load i8, ptr %10, align 1, !tbaa !22
  %25 = call i32 @is_eol(i8 noundef signext %24)
  %26 = icmp ne i32 %25, 0
  br i1 %26, label %27, label %28

27:                                               ; preds = %23
  store i32 3, ptr %11, align 4
  br label %78

28:                                               ; preds = %23, %20
  %29 = load i8, ptr %10, align 1, !tbaa !22
  %30 = call i32 @is_eol(i8 noundef signext %29)
  %31 = icmp ne i32 %30, 0
  br i1 %31, label %32, label %64

32:                                               ; preds = %28
  %33 = load i8, ptr %10, align 1, !tbaa !22
  %34 = sext i8 %33 to i32
  %35 = icmp eq i32 %34, 10
  br i1 %35, label %40, label %36

36:                                               ; preds = %32
  %37 = load i8, ptr %6, align 1, !tbaa !22
  %38 = sext i8 %37 to i32
  %39 = icmp ne i32 %38, 0
  br label %40

40:                                               ; preds = %36, %32
  %41 = phi i1 [ true, %32 ], [ %39, %36 ]
  %42 = zext i1 %41 to i32
  %43 = load i32, ptr %9, align 4, !tbaa !21
  %44 = add nsw i32 %43, %42
  store i32 %44, ptr %9, align 4, !tbaa !21
  %45 = load i32, ptr %9, align 4, !tbaa !21
  %46 = icmp eq i32 %45, 2
  br i1 %46, label %47, label %48

47:                                               ; preds = %40
  store i32 2, ptr %11, align 4
  br label %78

48:                                               ; preds = %40
  %49 = load i8, ptr %10, align 1, !tbaa !22
  %50 = load i32, ptr %8, align 4, !tbaa !21
  %51 = add nsw i32 %50, 1
  store i32 %51, ptr %8, align 4, !tbaa !21
  %52 = sext i32 %50 to i64
  %53 = getelementptr inbounds [5 x i8], ptr %5, i64 0, i64 %52
  store i8 %49, ptr %53, align 1, !tbaa !22
  %54 = load i32, ptr %8, align 4, !tbaa !21
  %55 = sext i32 %54 to i64
  %56 = icmp eq i64 %55, 4
  br i1 %56, label %57, label %58

57:                                               ; preds = %48
  store i32 2, ptr %11, align 4
  br label %78

58:                                               ; preds = %48
  %59 = load i8, ptr %10, align 1, !tbaa !22
  %60 = sext i8 %59 to i32
  %61 = icmp eq i32 %60, 13
  %62 = zext i1 %61 to i32
  %63 = trunc i32 %62 to i8
  store i8 %63, ptr %6, align 1, !tbaa !22
  store i32 3, ptr %11, align 4
  br label %78

64:                                               ; preds = %28
  %65 = load i32, ptr %8, align 4, !tbaa !21
  %66 = icmp ne i32 %65, 0
  br i1 %66, label %67, label %73

67:                                               ; preds = %64
  %68 = load i32, ptr %8, align 4, !tbaa !21
  %69 = sext i32 %68 to i64
  %70 = getelementptr inbounds [5 x i8], ptr %5, i64 0, i64 %69
  store i8 0, ptr %70, align 1, !tbaa !22
  %71 = load ptr, ptr %4, align 8, !tbaa !46
  %72 = getelementptr inbounds [5 x i8], ptr %5, i64 0, i64 0
  call void (ptr, ptr, ...) @av_bprintf(ptr noundef %71, ptr noundef @.str.4, ptr noundef %72)
  store i32 0, ptr %9, align 4, !tbaa !21
  store i32 0, ptr %8, align 4, !tbaa !21
  br label %73

73:                                               ; preds = %67, %64
  %74 = load ptr, ptr %4, align 8, !tbaa !46
  %75 = load i8, ptr %10, align 1, !tbaa !22
  call void @av_bprint_chars(ptr noundef %74, i8 noundef signext %75, i32 noundef 1)
  %76 = load i32, ptr %7, align 4, !tbaa !21
  %77 = add nsw i32 %76, 1
  store i32 %77, ptr %7, align 4, !tbaa !21
  store i32 0, ptr %11, align 4
  br label %78

78:                                               ; preds = %73, %58, %57, %47, %27, %19
  call void @llvm.lifetime.end.p0(i64 1, ptr %10) #9
  %79 = load i32, ptr %11, align 4
  switch i32 %79, label %86 [
    i32 0, label %80
    i32 2, label %81
    i32 3, label %13
  ]

80:                                               ; preds = %78
  br label %13

81:                                               ; preds = %78
  %82 = load ptr, ptr %4, align 8, !tbaa !46
  %83 = call i32 @av_bprint_is_complete(ptr noundef %82)
  %84 = icmp ne i32 %83, 0
  %85 = select i1 %84, i32 0, i32 -12
  store i32 1, ptr %11, align 4
  call void @llvm.lifetime.end.p0(i64 4, ptr %9) #9
  call void @llvm.lifetime.end.p0(i64 4, ptr %8) #9
  call void @llvm.lifetime.end.p0(i64 4, ptr %7) #9
  call void @llvm.lifetime.end.p0(i64 1, ptr %6) #9
  call void @llvm.lifetime.end.p0(i64 5, ptr %5) #9
  ret i32 %85

86:                                               ; preds = %78
  unreachable
}