; Function Attrs: nounwind uwtable
define range(i32 -12, 1) i32 @ff_subtitles_read_text_chunk(ptr noundef captures(none) %0, ptr noundef %1) local_unnamed_addr #0 {
  %3 = alloca [5 x i8], align 1
  call void @llvm.lifetime.start.p0(i64 5, ptr nonnull %3) #11
  tail call void @av_bprint_clear(ptr noundef %1) #11
  %4 = tail call i32 @ff_text_r8(ptr noundef %0)
  %5 = trunc i32 %4 to i8
  %.not51 = icmp eq i8 %5, 0
  br i1 %.not51, label %._crit_edge, label %.lr.ph

.lr.ph:                                           ; preds = %2, %32
  %6 = phi i8 [ %34, %32 ], [ %5, %2 ]
  %7 = phi i32 [ %33, %32 ], [ %4, %2 ]
  %.02155 = phi i8 [ %.1, %32 ], [ 0, %2 ]
  %.02254 = phi i32 [ %.123, %32 ], [ 0, %2 ]
  %.02453 = phi i32 [ %.125, %32 ], [ 0, %2 ]
  %.02752 = phi i32 [ %.128, %32 ], [ 0, %2 ]
  %8 = icmp eq i32 %.02752, 0
  br i1 %8, label %9, label %10

9:                                                ; preds = %.lr.ph
  switch i8 %6, label %26 [
    i8 13, label %32
    i8 10, label %32
  ]

10:                                               ; preds = %.lr.ph
  switch i8 %6, label %26 [
    i8 13, label %11
    i8 10, label %11
  ]

11:                                               ; preds = %10, %10
  %sext = shl i32 %7, 24
  %12 = icmp eq i32 %sext, 167772160
  %13 = icmp ne i8 %.02155, 0
  %14 = select i1 %12, i1 true, i1 %13
  %15 = zext i1 %14 to i32
  %16 = add nsw i32 %.02254, %15
  %17 = icmp eq i32 %16, 2
  br i1 %17, label %._crit_edge, label %18

18:                                               ; preds = %11
  %19 = add nsw i32 %.02453, 1
  %20 = sext i32 %.02453 to i64
  %21 = getelementptr inbounds [5 x i8], ptr %3, i64 0, i64 %20
  store i8 %6, ptr %21, align 1, !tbaa !19
  %22 = icmp eq i32 %19, 4
  br i1 %22, label %._crit_edge, label %23

23:                                               ; preds = %18
  %24 = icmp eq i32 %sext, 218103808
  %25 = zext i1 %24 to i8
  br label %32

26:                                               ; preds = %9, %10
  %.not34 = icmp eq i32 %.02453, 0
  br i1 %.not34, label %30, label %27

27:                                               ; preds = %26
  %28 = sext i32 %.02453 to i64
  %29 = getelementptr inbounds [5 x i8], ptr %3, i64 0, i64 %28
  store i8 0, ptr %29, align 1, !tbaa !19
  call void (ptr, ptr, ...) @av_bprintf(ptr noundef %1, ptr noundef nonnull @.str.4, ptr noundef nonnull %3) #11
  br label %30

30:                                               ; preds = %27, %26
  %.2 = phi i32 [ 0, %27 ], [ %.02254, %26 ]
  call void @av_bprint_chars(ptr noundef %1, i8 noundef signext %6, i32 noundef 1) #11
  %31 = add nsw i32 %.02752, 1
  br label %32

32:                                               ; preds = %9, %9, %30, %23
  %.128 = phi i32 [ %.02752, %23 ], [ %31, %30 ], [ 0, %9 ], [ 0, %9 ]
  %.125 = phi i32 [ %19, %23 ], [ 0, %30 ], [ %.02453, %9 ], [ %.02453, %9 ]
  %.123 = phi i32 [ %16, %23 ], [ %.2, %30 ], [ %.02254, %9 ], [ %.02254, %9 ]
  %.1 = phi i8 [ %25, %23 ], [ %.02155, %30 ], [ %.02155, %9 ], [ %.02155, %9 ]
  %33 = call i32 @ff_text_r8(ptr noundef %0)
  %34 = trunc i32 %33 to i8
  %.not = icmp eq i8 %34, 0
  br i1 %.not, label %._crit_edge, label %.lr.ph

._crit_edge:                                      ; preds = %18, %11, %32, %2
  %35 = getelementptr i8, ptr %1, i64 8
  %.val = load i32, ptr %35, align 8, !tbaa !37
  %36 = getelementptr i8, ptr %1, i64 12
  %.val36 = load i32, ptr %36, align 4, !tbaa !39
  %.not50 = icmp ult i32 %.val, %.val36
  %37 = select i1 %.not50, i32 0, i32 -12
  call void @llvm.lifetime.end.p0(i64 5, ptr nonnull %3) #11
  ret i32 %37
}